target datalayout = "e-m:e-p270:32:32-p271:32:32-p272:64:64-i64:64-i128:128-f80:128-n8:16:32:64-S128"
target triple = "x86_64-pc-linux-gnu"

%"class.std::__cxx11::basic_string" = type { %"struct.std::__cxx11::basic_string<char>::_Alloc_hider", i64, %union.anon }
%"struct.std::__cxx11::basic_string<char>::_Alloc_hider" = type { ptr }
%union.anon = type { i64, [8 x i8] }
%"class.pxrInternal_v0_24__pxrReserved__::SdfPathExpression" = type { %"class.std::vector", %"class.std::vector.4", %"class.std::vector.9", %"class.std::__cxx11::basic_string" }
%"class.std::vector" = type { %"struct.std::_Vector_base" }
%"struct.std::_Vector_base" = type { %"struct.std::_Vector_base<pxrInternal_v0_24__pxrReserved__::SdfPathExpression::Op, std::allocator<pxrInternal_v0_24__pxrReserved__::SdfPathExpression::Op>>::_Vector_impl" }
%"struct.std::_Vector_base<pxrInternal_v0_24__pxrReserved__::SdfPathExpression::Op, std::allocator<pxrInternal_v0_24__pxrReserved__::SdfPathExpression::Op>>::_Vector_impl" = type { %"struct.std::_Vector_base<pxrInternal_v0_24__pxrReserved__::SdfPathExpression::Op, std::allocator<pxrInternal_v0_24__pxrReserved__::SdfPathExpression::Op>>::_Vector_impl_data" }
%"struct.std::_Vector_base<pxrInternal_v0_24__pxrReserved__::SdfPathExpression::Op, std::allocator<pxrInternal_v0_24__pxrReserved__::SdfPathExpression::Op>>::_Vector_impl_data" = type { ptr, ptr, ptr }
%"class.std::vector.4" = type { %"struct.std::_Vector_base.5" }
%"struct.std::_Vector_base.5" = type { %"struct.std::_Vector_base<pxrInternal_v0_24__pxrReserved__::SdfPathExpression::ExpressionReference, std::allocator<pxrInternal_v0_24__pxrReserved__::SdfPathExpression::ExpressionReference>>::_Vector_impl" }
%"struct.std::_Vector_base<pxrInternal_v0_24__pxrReserved__::SdfPathExpression::ExpressionReference, std::allocator<pxrInternal_v0_24__pxrReserved__::SdfPathExpression::ExpressionReference>>::_Vector_impl" = type { %"struct.std::_Vector_base<pxrInternal_v0_24__pxrReserved__::SdfPathExpression::ExpressionReference, std::allocator<pxrInternal_v0_24__pxrReserved__::SdfPathExpression::ExpressionReference>>::_Vector_impl_data" }
%"struct.std::_Vector_base<pxrInternal_v0_24__pxrReserved__::SdfPathExpression::ExpressionReference, std::allocator<pxrInternal_v0_24__pxrReserved__::SdfPathExpression::ExpressionReference>>::_Vector_impl_data" = type { ptr, ptr, ptr }
%"class.std::vector.9" = type { %"struct.std::_Vector_base.10" }
%"struct.std::_Vector_base.10" = type { %"struct.std::_Vector_base<pxrInternal_v0_24__pxrReserved__::SdfPathPattern, std::allocator<pxrInternal_v0_24__pxrReserved__::SdfPathPattern>>::_Vector_impl" }
%"struct.std::_Vector_base<pxrInternal_v0_24__pxrReserved__::SdfPathPattern, std::allocator<pxrInternal_v0_24__pxrReserved__::SdfPathPattern>>::_Vector_impl" = type { %"struct.std::_Vector_base<pxrInternal_v0_24__pxrReserved__::SdfPathPattern, std::allocator<pxrInternal_v0_24__pxrReserved__::SdfPathPattern>>::_Vector_impl_data" }
%"struct.std::_Vector_base<pxrInternal_v0_24__pxrReserved__::SdfPathPattern, std::allocator<pxrInternal_v0_24__pxrReserved__::SdfPathPattern>>::_Vector_impl_data" = type { ptr, ptr, ptr }

@_ZZN32pxrInternal_v0_24__pxrReserved__17SdfPathExpression9WeakerRefEvE9theWeaker = internal global ptr null, align 8
@_ZGVZN32pxrInternal_v0_24__pxrReserved__17SdfPathExpression9WeakerRefEvE9theWeaker = internal global i64 0, align 8

; Function Attrs: mustprogress uwtable
define noundef nonnull align 8 dereferenceable(104) ptr @_ZN32pxrInternal_v0_24__pxrReserved__17SdfPathExpression9WeakerRefEv() #0 align 2 personality ptr @__gxx_personality_v0 {
  %1 = alloca ptr, align 8
  %2 = alloca i32, align 4
  %3 = load atomic i8, ptr @_ZGVZN32pxrInternal_v0_24__pxrReserved__17SdfPathExpression9WeakerRefEvE9theWeaker acquire, align 8
  %4 = icmp eq i8 %3, 0
  br i1 %4, label %5, label %14, !prof !4

5:                                                ; preds = %0
  %6 = call i32 @__cxa_guard_acquire(ptr @_ZGVZN32pxrInternal_v0_24__pxrReserved__17SdfPathExpression9WeakerRefEvE9theWeaker) #3
  %7 = icmp ne i32 %6, 0
  br i1 %7, label %8, label %14

8:                                                ; preds = %5
  %9 = invoke noalias noundef nonnull ptr @_Znwm(i64 noundef 104) #16
          to label %10 unwind label %16

10:                                               ; preds = %8
  %11 = invoke noundef nonnull align 8 dereferenceable(40) ptr @_ZN32pxrInternal_v0_24__pxrReserved__17SdfPathExpression19ExpressionReference6WeakerEv()
          to label %12 unwind label %20

12:                                               ; preds = %10
  invoke void @_ZN32pxrInternal_v0_24__pxrReserved__17SdfPathExpression8MakeAtomERKNS0_19ExpressionReferenceE(ptr dead_on_unwind writable sret(%"class.pxrInternal_v0_24__pxrReserved__::SdfPathExpression") align 8 %9, ptr noundef nonnull align 8 dereferenceable(40) %11)
          to label %13 unwind label %20

13:                                               ; preds = %12
  store ptr %9, ptr @_ZZN32pxrInternal_v0_24__pxrReserved__17SdfPathExpression9WeakerRefEvE9theWeaker, align 8
  call void @__cxa_guard_release(ptr @_ZGVZN32pxrInternal_v0_24__pxrReserved__17SdfPathExpression9WeakerRefEvE9theWeaker) #3
  br label %14

14:                                               ; preds = %13, %5, %0
  %15 = load ptr, ptr @_ZZN32pxrInternal_v0_24__pxrReserved__17SdfPathExpression9WeakerRefEvE9theWeaker, align 8
  ret ptr %15

16:                                               ; preds = %8
  %17 = landingpad { ptr, i32 }
          cleanup
  %18 = extractvalue { ptr, i32 } %17, 0
  store ptr %18, ptr %1, align 8
  %19 = extractvalue { ptr, i32 } %17, 1
  store i32 %19, ptr %2, align 4
  br label %24

20:                                               ; preds = %12, %10
  %21 = landingpad { ptr, i32 }
          cleanup
  %22 = extractvalue { ptr, i32 } %21, 0
  store ptr %22, ptr %1, align 8
  %23 = extractvalue { ptr, i32 } %21, 1
  store i32 %23, ptr %2, align 4
  call void @_ZdlPvm(ptr noundef %9, i64 noundef 104) #17
  br label %24

24:                                               ; preds = %20, %16
  call void @__cxa_guard_abort(ptr @_ZGVZN32pxrInternal_v0_24__pxrReserved__17SdfPathExpression9WeakerRefEvE9theWeaker) #3
  br label %25

25:                                               ; preds = %24
  %26 = load ptr, ptr %1, align 8
  %27 = load i32, ptr %2, align 4
  %28 = insertvalue { ptr, i32 } poison, ptr %26, 0
  %29 = insertvalue { ptr, i32 } %28, i32 %27, 1
  resume { ptr, i32 } %29
}