; Function Attrs: mustprogress uwtable
define noundef nonnull align 8 dereferenceable(104) ptr @_ZN32pxrInternal_v0_24__pxrReserved__17SdfPathExpression9WeakerRefEv() local_unnamed_addr #0 align 2 personality ptr @__gxx_personality_v0 {
  %1 = load atomic i8, ptr @_ZGVZN32pxrInternal_v0_24__pxrReserved__17SdfPathExpression9WeakerRefEvE9theWeaker acquire, align 8
  %2 = icmp eq i8 %1, 0
  br i1 %2, label %3, label %11, !prof !4

3:                                                ; preds = %0
  %4 = tail call i32 @__cxa_guard_acquire(ptr nonnull @_ZGVZN32pxrInternal_v0_24__pxrReserved__17SdfPathExpression9WeakerRefEvE9theWeaker) #24
  %.not = icmp eq i32 %4, 0
  br i1 %.not, label %11, label %5

5:                                                ; preds = %3
  %6 = invoke noalias noundef nonnull dereferenceable(104) ptr @_Znwm(i64 noundef 104) #25
          to label %7 unwind label %13

7:                                                ; preds = %5
  %8 = invoke noundef nonnull align 8 dereferenceable(40) ptr @_ZN32pxrInternal_v0_24__pxrReserved__17SdfPathExpression19ExpressionReference6WeakerEv()
          to label %9 unwind label %15

9:                                                ; preds = %7
  invoke void @_ZN32pxrInternal_v0_24__pxrReserved__17SdfPathExpression8MakeAtomERKNS0_19ExpressionReferenceE(ptr dead_on_unwind nonnull writable sret(%"class.pxrInternal_v0_24__pxrReserved__::SdfPathExpression") align 8 %6, ptr noundef nonnull align 8 dereferenceable(40) %8)
          to label %10 unwind label %15

10:                                               ; preds = %9
  store ptr %6, ptr @_ZZN32pxrInternal_v0_24__pxrReserved__17SdfPathExpression9WeakerRefEvE9theWeaker, align 8
  tail call void @__cxa_guard_release(ptr nonnull @_ZGVZN32pxrInternal_v0_24__pxrReserved__17SdfPathExpression9WeakerRefEvE9theWeaker) #24
  br label %11

11:                                               ; preds = %10, %3, %0
  %12 = load ptr, ptr @_ZZN32pxrInternal_v0_24__pxrReserved__17SdfPathExpression9WeakerRefEvE9theWeaker, align 8
  ret ptr %12

13:                                               ; preds = %5
  %14 = landingpad { ptr, i32 }
          cleanup
  br label %17

15:                                               ; preds = %9, %7
  %16 = landingpad { ptr, i32 }
          cleanup
  tail call void @_ZdlPvm(ptr noundef nonnull %6, i64 noundef 104) #26
  br label %17

17:                                               ; preds = %15, %13
  %.pn = phi { ptr, i32 } [ %16, %15 ], [ %14, %13 ]
  tail call void @__cxa_guard_abort(ptr nonnull @_ZGVZN32pxrInternal_v0_24__pxrReserved__17SdfPathExpression9WeakerRefEvE9theWeaker) #24
  resume { ptr, i32 } %.pn
}